target datalayout = "e-m:e-p270:32:32-p271:32:32-p272:64:64-i64:64-i128:128-f80:128-n8:16:32:64-S128"
target triple = "x86_64-pc-linux-gnu"

%struct.slurm_conf_t = type { i64, ptr, i16, ptr, ptr, ptr, ptr, ptr, i16, ptr, ptr, ptr, ptr, ptr, ptr, ptr, i16, ptr, ptr, ptr, ptr, i16, ptr, ptr, ptr, i64, ptr, ptr, ptr, ptr, i16, ptr, ptr, i16, i32, ptr, i32, ptr, i32, i32, ptr, ptr, i64, i64, ptr, i16, i16, ptr, i32, i32, ptr, i32, ptr, i32, i16, i16, i16, ptr, i16, i16, ptr, ptr, i32, i16, i16, ptr, i32, i16, ptr, ptr, ptr, ptr, i16, ptr, ptr, ptr, ptr, i32, ptr, ptr, ptr, ptr, i16, i16, ptr, i32, i32, i32, i16, i16, ptr, ptr, i16, ptr, ptr, i32, i32, i32, i32, i32, i64, i32, i32, i16, ptr, ptr, i32, ptr, ptr, ptr, i16, i32, ptr, ptr, i16, ptr, ptr, i32, i16, ptr, ptr, ptr, ptr, i32, i32, i16, i16, i32, ptr, i16, ptr, i32, i32, i32, i32, i32, i32, ptr, i16, ptr, ptr, i32, i16, ptr, i32, i16, i16, ptr, ptr, ptr, i16, ptr, ptr, ptr, ptr, i16, i16, ptr, i16, ptr, i16, ptr, i16, ptr, i16, ptr, ptr, ptr, ptr, i16, ptr, ptr, ptr, i32, ptr, i32, ptr, ptr, i16, ptr, ptr, i32, i16, ptr, ptr, i16, i16, ptr, i16, ptr, ptr, ptr, i32, ptr, i16, i16, ptr, ptr, ptr, ptr, ptr, ptr, ptr, ptr, i16, i32, i16, ptr, ptr, ptr, ptr, i32, ptr, ptr, ptr, i16, ptr, ptr, ptr, i16, ptr, i16, ptr, i16, i16, ptr }

@slurm_conf = external global %struct.slurm_conf_t, align 8
@.str.10 = private unnamed_addr constant [73 x i8] c"Container %lu in cgroup plugin has %d processes, giving up after %lu sec\00", align 1

; Function Attrs: nounwind uwtable
define dso_local i32 @proctrack_p_get_pids(i64 noundef %0, ptr noundef %1, ptr noundef %2) #0 {
  %4 = alloca i64, align 8
  %5 = alloca ptr, align 8
  %6 = alloca ptr, align 8
  store i64 %0, ptr %4, align 8
  store ptr %1, ptr %5, align 8
  store ptr %2, ptr %6, align 8
  %7 = load ptr, ptr %5, align 8
  %8 = load ptr, ptr %6, align 8
  %9 = call i32 @cgroup_g_step_get_pids(ptr noundef %7, ptr noundef %8)
  ret i32 %9
}

; Function Attrs: nounwind uwtable
define dso_local i32 @proctrack_p_wait(i64 noundef %0) #0 {
  %2 = alloca i32, align 4
  %3 = alloca i64, align 8
  %4 = alloca i32, align 4
  %5 = alloca i64, align 8
  %6 = alloca i64, align 8
  %7 = alloca ptr, align 8
  %8 = alloca i32, align 4
  %9 = alloca i32, align 4
  %10 = alloca i32, align 4
  store i64 %0, ptr %3, align 8
  call void @llvm.lifetime.start.p0(i64 4, ptr %4) #5
  store i32 1, ptr %4, align 4
  call void @llvm.lifetime.start.p0(i64 8, ptr %5) #5
  %11 = call i64 @time(ptr noundef null) #5
  store i64 %11, ptr %5, align 8
  call void @llvm.lifetime.start.p0(i64 8, ptr %6) #5
  call void @llvm.lifetime.start.p0(i64 8, ptr %7) #5
  store ptr null, ptr %7, align 8
  call void @llvm.lifetime.start.p0(i64 4, ptr %8) #5
  store i32 0, ptr %8, align 4
  call void @llvm.lifetime.start.p0(i64 4, ptr %9) #5
  %12 = load i64, ptr %3, align 8
  %13 = icmp eq i64 %12, 0
  br i1 %13, label %17, label %14

14:                                               ; preds = %1
  %15 = load i64, ptr %3, align 8
  %16 = icmp eq i64 %15, 1
  br i1 %16, label %17, label %18

17:                                               ; preds = %14, %1
  store i32 -1, ptr %2, align 4
  store i32 1, ptr %10, align 4
  br label %69

18:                                               ; preds = %14
  %19 = load i64, ptr %3, align 8
  %20 = call i32 @proctrack_p_get_pids(i64 noundef %19, ptr noundef %7, ptr noundef %8)
  store i32 %20, ptr %9, align 4
  br label %21

21:                                               ; preds = %65, %18
  %22 = load i32, ptr %9, align 4
  %23 = icmp eq i32 %22, 0
  br i1 %23, label %24, label %27

24:                                               ; preds = %21
  %25 = load i32, ptr %8, align 4
  %26 = icmp ne i32 %25, 0
  br label %27

27:                                               ; preds = %24, %21
  %28 = phi i1 [ false, %21 ], [ %26, %24 ]
  br i1 %28, label %29, label %68

29:                                               ; preds = %27
  %30 = load i32, ptr %8, align 4
  %31 = icmp eq i32 %30, 1
  br i1 %31, label %32, label %40

32:                                               ; preds = %29
  %33 = load ptr, ptr %7, align 8
  %34 = getelementptr inbounds i32, ptr %33, i64 0
  %35 = load i32, ptr %34, align 4
  %36 = sext i32 %35 to i64
  %37 = load i64, ptr %3, align 8
  %38 = icmp eq i64 %36, %37
  br i1 %38, label %39, label %40

39:                                               ; preds = %32
  br label %68

40:                                               ; preds = %32, %29
  %41 = call i64 @time(ptr noundef null) #5
  store i64 %41, ptr %6, align 8
  %42 = load i64, ptr %6, align 8
  %43 = load i64, ptr %5, align 8
  %44 = load i16, ptr getelementptr inbounds nuw (%struct.slurm_conf_t, ptr @slurm_conf, i32 0, i32 221), align 8
  %45 = zext i16 %44 to i64
  %46 = add nsw i64 %43, %45
  %47 = icmp sgt i64 %42, %46
  br i1 %47, label %48, label %55

48:                                               ; preds = %40
  %49 = load i64, ptr %3, align 8
  %50 = load i32, ptr %8, align 4
  %51 = load i64, ptr %6, align 8
  %52 = load i64, ptr %5, align 8
  %53 = sub nsw i64 %51, %52
  %54 = call i32 (ptr, ...) @error(ptr noundef @.str.10, i64 noundef %49, i32 noundef %50, i64 noundef %53)
  br label %68

55:                                               ; preds = %40
  %56 = load i64, ptr %3, align 8
  %57 = call i32 @proctrack_p_signal(i64 noundef %56, i32 noundef 9)
  %58 = load i32, ptr %4, align 4
  %59 = call i32 @sleep(i32 noundef %58)
  %60 = load i32, ptr %4, align 4
  %61 = icmp slt i32 %60, 32
  br i1 %61, label %62, label %65

62:                                               ; preds = %55
  %63 = load i32, ptr %4, align 4
  %64 = mul nsw i32 %63, 2
  store i32 %64, ptr %4, align 4
  br label %65

65:                                               ; preds = %62, %55
  call void @slurm_xfree(ptr noundef %7)
  %66 = load i64, ptr %3, align 8
  %67 = call i32 @proctrack_p_get_pids(i64 noundef %66, ptr noundef %7, ptr noundef %8)
  store i32 %67, ptr %9, align 4
  br label %21, !llvm.loop !13

68:                                               ; preds = %48, %39, %27
  call void @slurm_xfree(ptr noundef %7)
  store i32 0, ptr %2, align 4
  store i32 1, ptr %10, align 4
  br label %69

69:                                               ; preds = %68, %17
  call void @llvm.lifetime.end.p0(i64 4, ptr %9) #5
  call void @llvm.lifetime.end.p0(i64 4, ptr %8) #5
  call void @llvm.lifetime.end.p0(i64 8, ptr %7) #5
  call void @llvm.lifetime.end.p0(i64 8, ptr %6) #5
  call void @llvm.lifetime.end.p0(i64 8, ptr %5) #5
  call void @llvm.lifetime.end.p0(i64 4, ptr %4) #5
  %70 = load i32, ptr %2, align 4
  ret i32 %70
}