; Function Attrs: nounwind uwtable
define dso_local range(i32 -1, 1) i32 @proctrack_p_wait(i64 noundef %0) local_unnamed_addr #0 {
  %2 = alloca ptr, align 8
  %3 = alloca i32, align 4
  %4 = tail call i64 @time(ptr noundef null) #8
  call void @llvm.lifetime.start.p0(i64 8, ptr nonnull %2) #8
  store ptr null, ptr %2, align 8
  call void @llvm.lifetime.start.p0(i64 4, ptr nonnull %3) #8
  store i32 0, ptr %3, align 4
  %or.cond = icmp ult i64 %0, 2
  br i1 %or.cond, label %38, label %5

5:                                                ; preds = %1
  %6 = call i32 @cgroup_g_step_get_pids(ptr noundef nonnull %2, ptr noundef nonnull %3) #8
  %7 = icmp eq i32 %6, 0
  %8 = load i32, ptr %3, align 4
  %9 = icmp ne i32 %8, 0
  %10 = select i1 %7, i1 %9, i1 false
  br i1 %10, label %.lr.ph, label %.loopexit

.lr.ph:                                           ; preds = %5, %28
  %11 = phi i32 [ %35, %28 ], [ %8, %5 ]
  %.01822 = phi i32 [ %spec.select, %28 ], [ 1, %5 ]
  %12 = icmp eq i32 %11, 1
  br i1 %12, label %13, label %18

13:                                               ; preds = %.lr.ph
  %14 = load ptr, ptr %2, align 8
  %15 = load i32, ptr %14, align 4
  %16 = sext i32 %15 to i64
  %17 = icmp eq i64 %0, %16
  br i1 %17, label %.loopexit, label %18

18:                                               ; preds = %13, %.lr.ph
  %19 = call i64 @time(ptr noundef null) #8
  %20 = load i16, ptr getelementptr inbounds nuw (i8, ptr @slurm_conf, i64 1504), align 8
  %21 = zext i16 %20 to i64
  %22 = add nsw i64 %4, %21
  %23 = icmp sgt i64 %19, %22
  br i1 %23, label %24, label %28

24:                                               ; preds = %18
  %25 = load i32, ptr %3, align 4
  %26 = sub nsw i64 %19, %4
  %27 = call i32 (ptr, ...) @error(ptr noundef nonnull @.str.10, i64 noundef %0, i32 noundef %25, i64 noundef %26) #8
  br label %.loopexit

28:                                               ; preds = %18
  %29 = call i32 @proctrack_p_signal(i64 noundef %0, i32 noundef 9)
  %30 = call i32 @sleep(i32 noundef %.01822) #8
  %31 = icmp slt i32 %.01822, 32
  %32 = zext i1 %31 to i32
  %spec.select = shl nsw i32 %.01822, %32
  call void @slurm_xfree(ptr noundef nonnull %2) #8
  %33 = call i32 @cgroup_g_step_get_pids(ptr noundef nonnull %2, ptr noundef nonnull %3) #8
  %34 = icmp eq i32 %33, 0
  %35 = load i32, ptr %3, align 4
  %36 = icmp ne i32 %35, 0
  %37 = select i1 %34, i1 %36, i1 false
  br i1 %37, label %.lr.ph, label %.loopexit, !llvm.loop !13

.loopexit:                                        ; preds = %28, %13, %5, %24
  call void @slurm_xfree(ptr noundef nonnull %2) #8
  br label %38

38:                                               ; preds = %1, %.loopexit
  %.017 = phi i32 [ 0, %.loopexit ], [ -1, %1 ]
  call void @llvm.lifetime.end.p0(i64 4, ptr nonnull %3) #8
  call void @llvm.lifetime.end.p0(i64 8, ptr nonnull %2) #8
  ret i32 %.017
}